target datalayout = "e-m:e-p270:32:32-p271:32:32-p272:64:64-i64:64-i128:128-f80:128-n8:16:32:64-S128"
target triple = "x86_64-pc-linux-gnu"

%struct.Llb_Mnn_t_ = type { ptr, ptr, ptr, ptr, ptr, ptr, ptr, ptr, ptr, ptr, ptr, ptr, ptr, ptr, ptr, ptr, ptr, i32, i32, i64, i64, i64, i64, i64, i64, i64, i64 }
%struct.Gia_ParLlb_t_ = type { i32, i32, i32, i32, i32, i32, i32, i32, i32, i32, i32, i32, i32, i32, i32, i32, i32, i32, i32, i32, i32, i32, i32, i64, i32 }
%struct.timespec = type { i64, i64 }

; Function Attrs: inlinehint nounwind uwtable
define internal i64 @Abc_Clock() #3 {
  %1 = alloca i64, align 8
  %2 = alloca %struct.timespec, align 8
  %3 = alloca i32, align 4
  %4 = alloca i64, align 8
  call void @llvm.lifetime.start.p0(i64 16, ptr %2) #12
  %5 = call i32 @clock_gettime(i32 noundef 1, ptr noundef %2) #12
  %6 = icmp slt i32 %5, 0
  br i1 %6, label %7, label %8

7:                                                ; preds = %0
  store i64 -1, ptr %1, align 8
  store i32 1, ptr %3, align 4
  br label %19

8:                                                ; preds = %0
  call void @llvm.lifetime.start.p0(i64 8, ptr %4) #12
  %9 = getelementptr inbounds nuw %struct.timespec, ptr %2, i32 0, i32 0
  %10 = load i64, ptr %9, align 8, !tbaa !143
  %11 = mul nsw i64 %10, 1000000
  store i64 %11, ptr %4, align 8, !tbaa !14
  %12 = getelementptr inbounds nuw %struct.timespec, ptr %2, i32 0, i32 1
  %13 = load i64, ptr %12, align 8, !tbaa !145
  %14 = mul nsw i64 %13, 1000000
  %15 = sdiv i64 %14, 1000000000
  %16 = load i64, ptr %4, align 8, !tbaa !14
  %17 = add nsw i64 %16, %15
  store i64 %17, ptr %4, align 8, !tbaa !14
  %18 = load i64, ptr %4, align 8, !tbaa !14
  store i64 %18, ptr %1, align 8
  store i32 1, ptr %3, align 4
  call void @llvm.lifetime.end.p0(i64 8, ptr %4) #12
  br label %19

19:                                               ; preds = %8, %7
  call void @llvm.lifetime.end.p0(i64 16, ptr %2) #12
  %20 = load i64, ptr %1, align 8
  ret i64 %20
}

; Function Attrs: nounwind uwtable
define i32 @Llb_NonlinCoreReach(ptr noundef %0, ptr noundef %1) #0 {
  %3 = alloca ptr, align 8
  %4 = alloca ptr, align 8
  %5 = alloca ptr, align 8
  %6 = alloca ptr, align 8
  %7 = alloca i32, align 4
  %8 = alloca i64, align 8
  store ptr %0, ptr %3, align 8, !tbaa !10
  store ptr %1, ptr %4, align 8, !tbaa !131
  call void @llvm.lifetime.start.p0(i64 8, ptr %5) #12
  call void @llvm.lifetime.start.p0(i64 8, ptr %6) #12
  call void @llvm.lifetime.start.p0(i64 4, ptr %7) #12
  store i32 -1, ptr %7, align 4, !tbaa !12
  %9 = load ptr, ptr %3, align 8, !tbaa !10
  %10 = call ptr @Aig_ManDupFlopsOnly(ptr noundef %9)
  store ptr %10, ptr %6, align 8, !tbaa !10
  %11 = load ptr, ptr %4, align 8, !tbaa !131
  %12 = getelementptr inbounds nuw %struct.Gia_ParLlb_t_, ptr %11, i32 0, i32 16
  %13 = load i32, ptr %12, align 8, !tbaa !124
  %14 = icmp ne i32 %13, 0
  br i1 %14, label %15, label %17

15:                                               ; preds = %2
  %16 = load ptr, ptr %3, align 8, !tbaa !10
  call void @Aig_ManPrintStats(ptr noundef %16)
  br label %17

17:                                               ; preds = %15, %2
  %18 = load ptr, ptr %4, align 8, !tbaa !131
  %19 = getelementptr inbounds nuw %struct.Gia_ParLlb_t_, ptr %18, i32 0, i32 16
  %20 = load i32, ptr %19, align 8, !tbaa !124
  %21 = icmp ne i32 %20, 0
  br i1 %21, label %22, label %24

22:                                               ; preds = %17
  %23 = load ptr, ptr %6, align 8, !tbaa !10
  call void @Aig_ManPrintStats(ptr noundef %23)
  br label %24

24:                                               ; preds = %22, %17
  %25 = load ptr, ptr %4, align 8, !tbaa !131
  %26 = getelementptr inbounds nuw %struct.Gia_ParLlb_t_, ptr %25, i32 0, i32 19
  %27 = load i32, ptr %26, align 4, !tbaa !142
  %28 = icmp ne i32 %27, 0
  br i1 %28, label %43, label %29

29:                                               ; preds = %24
  call void @llvm.lifetime.start.p0(i64 8, ptr %8) #12
  %30 = call i64 @Abc_Clock()
  store i64 %30, ptr %8, align 8, !tbaa !14
  %31 = load ptr, ptr %3, align 8, !tbaa !10
  %32 = load ptr, ptr %6, align 8, !tbaa !10
  %33 = load ptr, ptr %4, align 8, !tbaa !131
  %34 = call ptr @Llb_MnnStart(ptr noundef %31, ptr noundef %32, ptr noundef %33)
  store ptr %34, ptr %5, align 8, !tbaa !39
  %35 = load ptr, ptr %5, align 8, !tbaa !39
  %36 = call i32 @Llb_NonlinReachability(ptr noundef %35)
  store i32 %36, ptr %7, align 4, !tbaa !12
  %37 = call i64 @Abc_Clock()
  %38 = load i64, ptr %8, align 8, !tbaa !14
  %39 = sub nsw i64 %37, %38
  %40 = load ptr, ptr %5, align 8, !tbaa !39
  %41 = getelementptr inbounds nuw %struct.Llb_Mnn_t_, ptr %40, i32 0, i32 24
  store i64 %39, ptr %41, align 8, !tbaa !136
  %42 = load ptr, ptr %5, align 8, !tbaa !39
  call void @Llb_MnnStop(ptr noundef %42)
  call void @llvm.lifetime.end.p0(i64 8, ptr %8) #12
  br label %43

43:                                               ; preds = %29, %24
  %44 = load ptr, ptr %6, align 8, !tbaa !10
  call void @Aig_ManStop(ptr noundef %44)
  %45 = load i32, ptr %7, align 4, !tbaa !12
  call void @llvm.lifetime.end.p0(i64 4, ptr %7) #12
  call void @llvm.lifetime.end.p0(i64 8, ptr %6) #12
  call void @llvm.lifetime.end.p0(i64 8, ptr %5) #12
  ret i32 %45
}