; Function Attrs: nounwind uwtable
define range(i32 -1, 2) i32 @Llb_NonlinCoreReach(ptr noundef %0, ptr noundef %1) local_unnamed_addr #0 {
  %3 = alloca %struct.timespec, align 8
  %4 = alloca %struct.timespec, align 8
  %5 = tail call ptr @Aig_ManDupFlopsOnly(ptr noundef %0) #19
  %6 = getelementptr inbounds nuw i8, ptr %1, i64 64
  %7 = load i32, ptr %6, align 8, !tbaa !114
  %.not = icmp eq i32 %7, 0
  br i1 %.not, label %.thread, label %8

8:                                                ; preds = %2
  tail call void @Aig_ManPrintStats(ptr noundef %0) #19
  %.pr = load i32, ptr %6, align 8, !tbaa !114
  %.not14 = icmp eq i32 %.pr, 0
  br i1 %.not14, label %.thread, label %9

9:                                                ; preds = %8
  tail call void @Aig_ManPrintStats(ptr noundef %5) #19
  br label %.thread

.thread:                                          ; preds = %2, %9, %8
  %10 = getelementptr inbounds nuw i8, ptr %1, i64 76
  %11 = load i32, ptr %10, align 4, !tbaa !132
  %.not15 = icmp eq i32 %11, 0
  br i1 %.not15, label %12, label %32

12:                                               ; preds = %.thread
  call void @llvm.lifetime.start.p0(i64 16, ptr nonnull %4) #19
  %13 = call i32 @clock_gettime(i32 noundef 1, ptr noundef nonnull %4) #19
  %14 = icmp slt i32 %13, 0
  br i1 %14, label %Abc_Clock.exit, label %15

15:                                               ; preds = %12
  %16 = load i64, ptr %4, align 8, !tbaa !3
  %.neg19 = mul i64 %16, -1000000
  %17 = getelementptr inbounds nuw i8, ptr %4, i64 8
  %18 = load i64, ptr %17, align 8, !tbaa !8
  %.neg = sdiv i64 %18, -1000
  %.neg20 = add i64 %.neg, %.neg19
  br label %Abc_Clock.exit

Abc_Clock.exit:                                   ; preds = %12, %15
  %.0.i.neg = phi i64 [ %.neg20, %15 ], [ 1, %12 ]
  call void @llvm.lifetime.end.p0(i64 16, ptr nonnull %4) #19
  %19 = call ptr @Llb_MnnStart(ptr noundef %0, ptr noundef %5, ptr noundef nonnull %1)
  %20 = call i32 @Llb_NonlinReachability(ptr noundef %19)
  call void @llvm.lifetime.start.p0(i64 16, ptr nonnull %3) #19
  %21 = call i32 @clock_gettime(i32 noundef 1, ptr noundef nonnull %3) #19
  %22 = icmp slt i32 %21, 0
  br i1 %22, label %Abc_Clock.exit17, label %23

23:                                               ; preds = %Abc_Clock.exit
  %24 = load i64, ptr %3, align 8, !tbaa !3
  %25 = mul nsw i64 %24, 1000000
  %26 = getelementptr inbounds nuw i8, ptr %3, i64 8
  %27 = load i64, ptr %26, align 8, !tbaa !8
  %28 = sdiv i64 %27, 1000
  %29 = add nsw i64 %28, %25
  br label %Abc_Clock.exit17

Abc_Clock.exit17:                                 ; preds = %Abc_Clock.exit, %23
  %.0.i16 = phi i64 [ %29, %23 ], [ -1, %Abc_Clock.exit ]
  call void @llvm.lifetime.end.p0(i64 16, ptr nonnull %3) #19
  %30 = add i64 %.0.i16, %.0.i.neg
  %31 = getelementptr inbounds nuw i8, ptr %19, i64 184
  store i64 %30, ptr %31, align 8, !tbaa !126
  call void @Llb_MnnStop(ptr noundef %19)
  br label %32

32:                                               ; preds = %Abc_Clock.exit17, %.thread
  %.0 = phi i32 [ -1, %.thread ], [ %20, %Abc_Clock.exit17 ]
  call void @Aig_ManStop(ptr noundef %5) #19
  ret i32 %.0
}